; ModuleID = '7/131.c'
source_filename = "7/131.c"
target datalayout = "e-m:e-p270:32:32-p271:32:32-p272:64:64-i64:64-f80:128-n8:16:32:64-S128"
target triple = "x86_64-pc-linux-gnu"

@.str = private unnamed_addr constant [7 x i8] c"%s%s%s\00", align 1
@.str.1 = private unnamed_addr constant [4 x i8] c"%s\0A\00", align 1

; Function Attrs: noinline nounwind uwtable
define dso_local i32 @main() #0 {
  %1 = alloca i32, align 4
  %2 = alloca [256 x i8], align 16
  %3 = alloca [256 x i8], align 16
  %4 = alloca [256 x i8], align 16
  %5 = alloca [2 x [256 x i8]], align 16
  %6 = alloca i32, align 4
  %7 = alloca i32, align 4
  %8 = alloca i32, align 4
  %9 = alloca i32, align 4
  %10 = alloca i32, align 4
  %11 = alloca i32, align 4
  store i32 0, i32* %1, align 4
  %12 = getelementptr inbounds [256 x i8], [256 x i8]* %2, i64 0, i64 0
  %13 = getelementptr inbounds [256 x i8], [256 x i8]* %3, i64 0, i64 0
  %14 = getelementptr inbounds [256 x i8], [256 x i8]* %4, i64 0, i64 0
  %15 = call i32 (i8*, ...) @__isoc99_scanf(i8* getelementptr inbounds ([7 x i8], [7 x i8]* @.str, i64 0, i64 0), i8* %12, i8* %13, i8* %14)
  %16 = bitcast [2 x [256 x i8]]* %5 to i8*
  call void @llvm.memset.p0i8.i64(i8* align 16 %16, i8 0, i64 512, i1 false)
  %17 = getelementptr inbounds [256 x i8], [256 x i8]* %2, i64 0, i64 0
  %18 = call i64 @strlen(i8* %17) #5
  %19 = trunc i64 %18 to i32
  store i32 %19, i32* %6, align 4
  %20 = getelementptr inbounds [256 x i8], [256 x i8]* %3, i64 0, i64 0
  %21 = call i64 @strlen(i8* %20) #5
  %22 = trunc i64 %21 to i32
  store i32 %22, i32* %7, align 4
  store i32 0, i32* %8, align 4
  br label %23

23:                                               ; preds = %117, %0
  %24 = load i32, i32* %8, align 4
  %25 = load i32, i32* %6, align 4
  %26 = load i32, i32* %7, align 4
  %27 = sub nsw i32 %25, %26
  %28 = icmp sle i32 %24, %27
  br i1 %28, label %29, label %120

29:                                               ; preds = %23
  %30 = load i32, i32* %8, align 4
  store i32 %30, i32* %9, align 4
  br label %31

31:                                               ; preds = %53, %29
  %32 = load i32, i32* %9, align 4
  %33 = load i32, i32* %8, align 4
  %34 = load i32, i32* %7, align 4
  %35 = add nsw i32 %33, %34
  %36 = icmp slt i32 %32, %35
  br i1 %36, label %37, label %56

37:                                               ; preds = %31
  %38 = load i32, i32* %9, align 4
  %39 = sext i32 %38 to i64
  %40 = getelementptr inbounds [256 x i8], [256 x i8]* %2, i64 0, i64 %39
  %41 = load i8, i8* %40, align 1
  %42 = sext i8 %41 to i32
  %43 = load i32, i32* %9, align 4
  %44 = load i32, i32* %8, align 4
  %45 = sub nsw i32 %43, %44
  %46 = sext i32 %45 to i64
  %47 = getelementptr inbounds [256 x i8], [256 x i8]* %3, i64 0, i64 %46
  %48 = load i8, i8* %47, align 1
  %49 = sext i8 %48 to i32
  %50 = icmp ne i32 %42, %49
  br i1 %50, label %51, label %52

51:                                               ; preds = %37
  br label %56

52:                                               ; preds = %37
  br label %53

53:                                               ; preds = %52
  %54 = load i32, i32* %9, align 4
  %55 = add nsw i32 %54, 1
  store i32 %55, i32* %9, align 4
  br label %31

56:                                               ; preds = %51, %31
  %57 = load i32, i32* %9, align 4
  %58 = load i32, i32* %8, align 4
  %59 = load i32, i32* %7, align 4
  %60 = add nsw i32 %58, %59
  %61 = icmp eq i32 %57, %60
  br i1 %61, label %62, label %116

62:                                               ; preds = %56
  store i32 0, i32* %10, align 4
  br label %63

63:                                               ; preds = %76, %62
  %64 = load i32, i32* %10, align 4
  %65 = load i32, i32* %8, align 4
  %66 = icmp slt i32 %64, %65
  br i1 %66, label %67, label %79

67:                                               ; preds = %63
  %68 = load i32, i32* %10, align 4
  %69 = sext i32 %68 to i64
  %70 = getelementptr inbounds [256 x i8], [256 x i8]* %2, i64 0, i64 %69
  %71 = load i8, i8* %70, align 1
  %72 = getelementptr inbounds [2 x [256 x i8]], [2 x [256 x i8]]* %5, i64 0, i64 0
  %73 = load i32, i32* %10, align 4
  %74 = sext i32 %73 to i64
  %75 = getelementptr inbounds [256 x i8], [256 x i8]* %72, i64 0, i64 %74
  store i8 %71, i8* %75, align 1
  br label %76

76:                                               ; preds = %67
  %77 = load i32, i32* %10, align 4
  %78 = add nsw i32 %77, 1
  store i32 %78, i32* %10, align 4
  br label %63

79:                                               ; preds = %63
  %80 = load i32, i32* %8, align 4
  %81 = load i32, i32* %7, align 4
  %82 = add nsw i32 %80, %81
  store i32 %82, i32* %11, align 4
  br label %83

83:                                               ; preds = %100, %79
  %84 = load i32, i32* %11, align 4
  %85 = load i32, i32* %6, align 4
  %86 = icmp slt i32 %84, %85
  br i1 %86, label %87, label %103

87:                                               ; preds = %83
  %88 = load i32, i32* %11, align 4
  %89 = sext i32 %88 to i64
  %90 = getelementptr inbounds [256 x i8], [256 x i8]* %2, i64 0, i64 %89
  %91 = load i8, i8* %90, align 1
  %92 = getelementptr inbounds [2 x [256 x i8]], [2 x [256 x i8]]* %5, i64 0, i64 1
  %93 = load i32, i32* %11, align 4
  %94 = load i32, i32* %8, align 4
  %95 = sub nsw i32 %93, %94
  %96 = load i32, i32* %7, align 4
  %97 = sub nsw i32 %95, %96
  %98 = sext i32 %97 to i64
  %99 = getelementptr inbounds [256 x i8], [256 x i8]* %92, i64 0, i64 %98
  store i8 %91, i8* %99, align 1
  br label %100

100:                                              ; preds = %87
  %101 = load i32, i32* %11, align 4
  %102 = add nsw i32 %101, 1
  store i32 %102, i32* %11, align 4
  br label %83

103:                                              ; preds = %83
  %104 = getelementptr inbounds [2 x [256 x i8]], [2 x [256 x i8]]* %5, i64 0, i64 0
  %105 = getelementptr inbounds [256 x i8], [256 x i8]* %104, i64 0, i64 0
  %106 = getelementptr inbounds [256 x i8], [256 x i8]* %4, i64 0, i64 0
  %107 = call i8* @strcat(i8* %105, i8* %106) #6
  %108 = getelementptr inbounds [2 x [256 x i8]], [2 x [256 x i8]]* %5, i64 0, i64 0
  %109 = getelementptr inbounds [256 x i8], [256 x i8]* %108, i64 0, i64 0
  %110 = getelementptr inbounds [2 x [256 x i8]], [2 x [256 x i8]]* %5, i64 0, i64 1
  %111 = getelementptr inbounds [256 x i8], [256 x i8]* %110, i64 0, i64 0
  %112 = call i8* @strcat(i8* %109, i8* %111) #6
  %113 = getelementptr inbounds [2 x [256 x i8]], [2 x [256 x i8]]* %5, i64 0, i64 0
  %114 = getelementptr inbounds [256 x i8], [256 x i8]* %113, i64 0, i64 0
  %115 = call i32 (i8*, ...) @printf(i8* getelementptr inbounds ([4 x i8], [4 x i8]* @.str.1, i64 0, i64 0), i8* %114)
  br label %120

116:                                              ; preds = %56
  br label %117

117:                                              ; preds = %116
  %118 = load i32, i32* %8, align 4
  %119 = add nsw i32 %118, 1
  store i32 %119, i32* %8, align 4
  br label %23

120:                                              ; preds = %103, %23
  %121 = load i32, i32* %8, align 4
  %122 = load i32, i32* %6, align 4
  %123 = load i32, i32* %7, align 4
  %124 = sub nsw i32 %122, %123
  %125 = add nsw i32 %124, 1
  %126 = icmp eq i32 %121, %125
  br i1 %126, label %127, label %130

127:                                              ; preds = %120
  %128 = getelementptr inbounds [256 x i8], [256 x i8]* %2, i64 0, i64 0
  %129 = call i32 (i8*, ...) @printf(i8* getelementptr inbounds ([4 x i8], [4 x i8]* @.str.1, i64 0, i64 0), i8* %128)
  br label %130

130:                                              ; preds = %127, %120
  ret i32 0
}

declare dso_local i32 @__isoc99_scanf(i8*, ...) #1

; Function Attrs: argmemonly nounwind willreturn
declare void @llvm.memset.p0i8.i64(i8* nocapture writeonly, i8, i64, i1 immarg) #2

; Function Attrs: nounwind readonly
declare dso_local i64 @strlen(i8*) #3

; Function Attrs: nounwind
declare dso_local i8* @strcat(i8*, i8*) #4

declare dso_local i32 @printf(i8*, ...) #1


!llvm.module.flags = !{!0}
!llvm.ident = !{!1}

!0 = !{i32 1, !"wchar_size", i32 4}
!1 = !{!"clang version 10.0.0-4ubuntu1 "}
